; Function Attrs: null_pointer_is_valid sspstrong uwtable
define ptr @get_eth_conversation_data(ptr noundef %0, ptr noundef readonly captures(none) %1) local_unnamed_addr #0 {
  %3 = icmp eq ptr %0, null
  br i1 %3, label %16, label %4

4:                                                ; preds = %2
  %5 = load i32, ptr @proto_eth, align 4
  %6 = tail call ptr @conversation_get_proto_data(ptr noundef nonnull %0, i32 noundef %5)
  %.not = icmp eq ptr %6, null
  br i1 %.not, label %7, label %16

7:                                                ; preds = %4
  %8 = tail call ptr @wmem_file_scope()
  %9 = tail call noalias dereferenceable_or_null(8) ptr @wmem_alloc0(ptr noundef %8, i64 noundef 8) #10
  %10 = getelementptr inbounds nuw i8, ptr %1, i64 20
  %11 = load i32, ptr %10, align 4
  store i32 %11, ptr %9, align 4
  %12 = getelementptr inbounds nuw i8, ptr %9, i64 4
  %13 = load i32, ptr @eth_stream_count, align 4
  %14 = add i32 %13, 1
  store i32 %14, ptr @eth_stream_count, align 4
  store i32 %13, ptr %12, align 4
  %15 = load i32, ptr @proto_eth, align 4
  tail call void @conversation_add_proto_data(ptr noundef nonnull %0, i32 noundef %15, ptr noundef %9)
  br label %16

16:                                               ; preds = %4, %7, %2
  %.09 = phi ptr [ null, %2 ], [ %6, %4 ], [ %9, %7 ]
  ret ptr %.09
}